target datalayout = "e-m:e-p270:32:32-p271:32:32-p272:64:64-i64:64-i128:128-f80:128-n8:16:32:64-S128"
target triple = "x86_64-pc-linux-gnu"

%"class.LightGBM::Tree" = type { ptr, i32, i32, %"class.std::vector", %"class.std::vector", %"class.std::vector", %"class.std::vector", %"class.std::vector.0", %"class.std::vector.5", i32, %"class.std::vector", %"class.std::vector.0", %"class.std::vector", %"class.std::vector.0", %"class.std::vector.10", %"class.std::vector.15", %"class.std::vector", %"class.std::vector.5", %"class.std::vector.5", %"class.std::vector", %"class.std::vector.5", %"class.std::vector.5", %"class.std::vector", %"class.std::vector", i8, %"class.std::vector.20", double, i32, i8, %"class.std::vector.25", %"class.std::vector.5", %"class.std::vector.20", %"class.std::vector.20" }
%"class.std::vector.0" = type { %"struct.std::_Vector_base.1" }
%"struct.std::_Vector_base.1" = type { %"struct.std::_Vector_base<unsigned int, std::allocator<unsigned int>>::_Vector_impl" }
%"struct.std::_Vector_base<unsigned int, std::allocator<unsigned int>>::_Vector_impl" = type { %"struct.std::_Vector_base<unsigned int, std::allocator<unsigned int>>::_Vector_impl_data" }
%"struct.std::_Vector_base<unsigned int, std::allocator<unsigned int>>::_Vector_impl_data" = type { ptr, ptr, ptr }
%"class.std::vector.10" = type { %"struct.std::_Vector_base.11" }
%"struct.std::_Vector_base.11" = type { %"struct.std::_Vector_base<signed char, std::allocator<signed char>>::_Vector_impl" }
%"struct.std::_Vector_base<signed char, std::allocator<signed char>>::_Vector_impl" = type { %"struct.std::_Vector_base<signed char, std::allocator<signed char>>::_Vector_impl_data" }
%"struct.std::_Vector_base<signed char, std::allocator<signed char>>::_Vector_impl_data" = type { ptr, ptr, ptr }
%"class.std::vector.15" = type { %"struct.std::_Vector_base.16" }
%"struct.std::_Vector_base.16" = type { %"struct.std::_Vector_base<float, std::allocator<float>>::_Vector_impl" }
%"struct.std::_Vector_base<float, std::allocator<float>>::_Vector_impl" = type { %"struct.std::_Vector_base<float, std::allocator<float>>::_Vector_impl_data" }
%"struct.std::_Vector_base<float, std::allocator<float>>::_Vector_impl_data" = type { ptr, ptr, ptr }
%"class.std::vector" = type { %"struct.std::_Vector_base" }
%"struct.std::_Vector_base" = type { %"struct.std::_Vector_base<int, std::allocator<int>>::_Vector_impl" }
%"struct.std::_Vector_base<int, std::allocator<int>>::_Vector_impl" = type { %"struct.std::_Vector_base<int, std::allocator<int>>::_Vector_impl_data" }
%"struct.std::_Vector_base<int, std::allocator<int>>::_Vector_impl_data" = type { ptr, ptr, ptr }
%"class.std::vector.25" = type { %"struct.std::_Vector_base.26" }
%"struct.std::_Vector_base.26" = type { %"struct.std::_Vector_base<std::vector<double>, std::allocator<std::vector<double>>>::_Vector_impl" }
%"struct.std::_Vector_base<std::vector<double>, std::allocator<std::vector<double>>>::_Vector_impl" = type { %"struct.std::_Vector_base<std::vector<double>, std::allocator<std::vector<double>>>::_Vector_impl_data" }
%"struct.std::_Vector_base<std::vector<double>, std::allocator<std::vector<double>>>::_Vector_impl_data" = type { ptr, ptr, ptr }
%"class.std::vector.5" = type { %"struct.std::_Vector_base.6" }
%"struct.std::_Vector_base.6" = type { %"struct.std::_Vector_base<double, std::allocator<double>>::_Vector_impl" }
%"struct.std::_Vector_base<double, std::allocator<double>>::_Vector_impl" = type { %"struct.std::_Vector_base<double, std::allocator<double>>::_Vector_impl_data" }
%"struct.std::_Vector_base<double, std::allocator<double>>::_Vector_impl_data" = type { ptr, ptr, ptr }
%"class.std::vector.20" = type { %"struct.std::_Vector_base.21" }
%"struct.std::_Vector_base.21" = type { %"struct.std::_Vector_base<std::vector<int>, std::allocator<std::vector<int>>>::_Vector_impl" }
%"struct.std::_Vector_base<std::vector<int>, std::allocator<std::vector<int>>>::_Vector_impl" = type { %"struct.std::_Vector_base<std::vector<int>, std::allocator<std::vector<int>>>::_Vector_impl_data" }
%"struct.std::_Vector_base<std::vector<int>, std::allocator<std::vector<int>>>::_Vector_impl_data" = type { ptr, ptr, ptr }

; Function Attrs: mustprogress nounwind uwtable
define linkonce_odr noundef nonnull align 8 dereferenceable(8) ptr @_ZNKSt6vectorIdSaIdEEixEm(ptr noundef nonnull align 8 dereferenceable(24) %0, i64 noundef %1) #0 comdat align 2 {
  %3 = alloca ptr, align 8
  %4 = alloca i64, align 8
  store ptr %0, ptr %3, align 8, !tbaa !141
  store i64 %1, ptr %4, align 8, !tbaa !132
  %5 = load ptr, ptr %3, align 8
  %6 = getelementptr inbounds nuw %"struct.std::_Vector_base.6", ptr %5, i32 0, i32 0
  %7 = getelementptr inbounds nuw %"struct.std::_Vector_base<double, std::allocator<double>>::_Vector_impl_data", ptr %6, i32 0, i32 0
  %8 = load ptr, ptr %7, align 8, !tbaa !152
  %9 = load i64, ptr %4, align 8, !tbaa !132
  %10 = getelementptr inbounds nuw double, ptr %8, i64 %9
  ret ptr %10
}

; Function Attrs: inlinehint mustprogress nounwind uwtable
define linkonce_odr noundef i32 @_ZNK8LightGBM4Tree10num_leavesEv(ptr noundef nonnull align 8 dereferenceable(648) %0) #3 comdat align 2 {
  %2 = alloca ptr, align 8
  store ptr %0, ptr %2, align 8, !tbaa !4
  %3 = load ptr, ptr %2, align 8
  %4 = getelementptr inbounds nuw %"class.LightGBM::Tree", ptr %3, i32 0, i32 2
  %5 = load i32, ptr %4, align 4, !tbaa !56
  ret i32 %5
}

; Function Attrs: mustprogress nounwind uwtable
define linkonce_odr noundef nonnull align 4 dereferenceable(4) ptr @_ZNKSt6vectorIiSaIiEEixEm(ptr noundef nonnull align 8 dereferenceable(24) %0, i64 noundef %1) #0 comdat align 2 {
  %3 = alloca ptr, align 8
  %4 = alloca i64, align 8
  store ptr %0, ptr %3, align 8, !tbaa !62
  store i64 %1, ptr %4, align 8, !tbaa !132
  %5 = load ptr, ptr %3, align 8
  %6 = getelementptr inbounds nuw %"struct.std::_Vector_base", ptr %5, i32 0, i32 0
  %7 = getelementptr inbounds nuw %"struct.std::_Vector_base<int, std::allocator<int>>::_Vector_impl_data", ptr %6, i32 0, i32 0
  %8 = load ptr, ptr %7, align 8, !tbaa !150
  %9 = load i64, ptr %4, align 8, !tbaa !132
  %10 = getelementptr inbounds nuw i32, ptr %8, i64 %9
  ret ptr %10
}

; Function Attrs: inlinehint mustprogress nounwind uwtable
define linkonce_odr noundef double @_ZNK8LightGBM4Tree10LeafOutputEi(ptr noundef nonnull align 8 dereferenceable(648) %0, i32 noundef %1) #3 comdat align 2 {
  %3 = alloca ptr, align 8
  %4 = alloca i32, align 4
  store ptr %0, ptr %3, align 8, !tbaa !4
  store i32 %1, ptr %4, align 4, !tbaa !13
  %5 = load ptr, ptr %3, align 8
  %6 = getelementptr inbounds nuw %"class.LightGBM::Tree", ptr %5, i32 0, i32 17
  %7 = load i32, ptr %4, align 4, !tbaa !13
  %8 = sext i32 %7 to i64
  %9 = call noundef nonnull align 8 dereferenceable(8) ptr @_ZNKSt6vectorIdSaIdEEixEm(ptr noundef nonnull align 8 dereferenceable(24) %6, i64 noundef %8) #7
  %10 = load double, ptr %9, align 8, !tbaa !57
  ret double %10
}

; Function Attrs: mustprogress uwtable
define noundef double @_ZNK8LightGBM4Tree13ExpectedValueEv(ptr noundef nonnull align 8 dereferenceable(648) %0) #1 align 2 {
  %2 = alloca double, align 8
  %3 = alloca ptr, align 8
  %4 = alloca double, align 8
  %5 = alloca double, align 8
  %6 = alloca i32, align 4
  store ptr %0, ptr %3, align 8, !tbaa !4
  %7 = load ptr, ptr %3, align 8
  %8 = getelementptr inbounds nuw %"class.LightGBM::Tree", ptr %7, i32 0, i32 2
  %9 = load i32, ptr %8, align 4, !tbaa !56
  %10 = icmp eq i32 %9, 1
  br i1 %10, label %11, label %13

11:                                               ; preds = %1
  %12 = call noundef double @_ZNK8LightGBM4Tree10LeafOutputEi(ptr noundef nonnull align 8 dereferenceable(648) %7, i32 noundef 0)
  store double %12, ptr %2, align 8
  br label %41

13:                                               ; preds = %1
  call void @llvm.lifetime.start.p0(i64 8, ptr %4) #7
  %14 = getelementptr inbounds nuw %"class.LightGBM::Tree", ptr %7, i32 0, i32 22
  %15 = call noundef nonnull align 4 dereferenceable(4) ptr @_ZNKSt6vectorIiSaIiEEixEm(ptr noundef nonnull align 8 dereferenceable(24) %14, i64 noundef 0) #7
  %16 = load i32, ptr %15, align 4, !tbaa !13
  %17 = sitofp i32 %16 to double
  store double %17, ptr %4, align 8, !tbaa !57
  call void @llvm.lifetime.start.p0(i64 8, ptr %5) #7
  store double 0.000000e+00, ptr %5, align 8, !tbaa !57
  call void @llvm.lifetime.start.p0(i64 4, ptr %6) #7
  store i32 0, ptr %6, align 4, !tbaa !13
  br label %18

18:                                               ; preds = %36, %13
  %19 = load i32, ptr %6, align 4, !tbaa !13
  %20 = call noundef i32 @_ZNK8LightGBM4Tree10num_leavesEv(ptr noundef nonnull align 8 dereferenceable(648) %7)
  %21 = icmp slt i32 %19, %20
  br i1 %21, label %23, label %22

22:                                               ; preds = %18
  call void @llvm.lifetime.end.p0(i64 4, ptr %6) #7
  br label %39

23:                                               ; preds = %18
  %24 = getelementptr inbounds nuw %"class.LightGBM::Tree", ptr %7, i32 0, i32 19
  %25 = load i32, ptr %6, align 4, !tbaa !13
  %26 = sext i32 %25 to i64
  %27 = call noundef nonnull align 4 dereferenceable(4) ptr @_ZNKSt6vectorIiSaIiEEixEm(ptr noundef nonnull align 8 dereferenceable(24) %24, i64 noundef %26) #7
  %28 = load i32, ptr %27, align 4, !tbaa !13
  %29 = sitofp i32 %28 to double
  %30 = load double, ptr %4, align 8, !tbaa !57
  %31 = fdiv double %29, %30
  %32 = load i32, ptr %6, align 4, !tbaa !13
  %33 = call noundef double @_ZNK8LightGBM4Tree10LeafOutputEi(ptr noundef nonnull align 8 dereferenceable(648) %7, i32 noundef %32)
  %34 = load double, ptr %5, align 8, !tbaa !57
  %35 = call double @llvm.fmuladd.f64(double %31, double %33, double %34)
  store double %35, ptr %5, align 8, !tbaa !57
  br label %36

36:                                               ; preds = %23
  %37 = load i32, ptr %6, align 4, !tbaa !13
  %38 = add nsw i32 %37, 1
  store i32 %38, ptr %6, align 4, !tbaa !13
  br label %18, !llvm.loop !1619

39:                                               ; preds = %22
  %40 = load double, ptr %5, align 8, !tbaa !57
  store double %40, ptr %2, align 8
  call void @llvm.lifetime.end.p0(i64 8, ptr %5) #7
  call void @llvm.lifetime.end.p0(i64 8, ptr %4) #7
  br label %41

41:                                               ; preds = %39, %11
  %42 = load double, ptr %2, align 8
  ret double %42
}