; Function Attrs: mustprogress nofree norecurse nosync nounwind willreturn memory(read, inaccessiblemem: none) uwtable
define noundef double @_ZNK8LightGBM4Tree13ExpectedValueEv(ptr noundef nonnull readonly align 8 captures(none) dereferenceable(648) %0) local_unnamed_addr #22 align 2 {
  %2 = getelementptr inbounds nuw i8, ptr %0, i64 12
  %3 = load i32, ptr %2, align 4, !tbaa !130
  %4 = icmp eq i32 %3, 1
  br i1 %4, label %5, label %9

5:                                                ; preds = %1
  %6 = getelementptr inbounds nuw i8, ptr %0, i64 336
  %7 = load ptr, ptr %6, align 8, !tbaa !18
  %8 = load double, ptr %7, align 8, !tbaa !66
  br label %.loopexit

9:                                                ; preds = %1
  %10 = getelementptr inbounds nuw i8, ptr %0, i64 456
  %11 = load ptr, ptr %10, align 8, !tbaa !13
  %12 = load i32, ptr %11, align 4, !tbaa !36
  %13 = sitofp i32 %12 to double
  %14 = icmp sgt i32 %3, 0
  br i1 %14, label %.lr.ph, label %.loopexit

.lr.ph:                                           ; preds = %9
  %15 = getelementptr inbounds nuw i8, ptr %0, i64 384
  %16 = load ptr, ptr %15, align 8, !tbaa !13
  %17 = getelementptr inbounds nuw i8, ptr %0, i64 336
  %18 = load ptr, ptr %17, align 8, !tbaa !18
  %wide.trip.count = zext nneg i32 %3 to i64
  br label %19

19:                                               ; preds = %.lr.ph, %19
  %indvars.iv = phi i64 [ 0, %.lr.ph ], [ %indvars.iv.next, %19 ]
  %.0810 = phi double [ 0.000000e+00, %.lr.ph ], [ %26, %19 ]
  %20 = getelementptr inbounds nuw i32, ptr %16, i64 %indvars.iv
  %21 = load i32, ptr %20, align 4, !tbaa !36
  %22 = sitofp i32 %21 to double
  %23 = fdiv double %22, %13
  %24 = getelementptr inbounds nuw double, ptr %18, i64 %indvars.iv
  %25 = load double, ptr %24, align 8, !tbaa !66
  %26 = tail call double @llvm.fmuladd.f64(double %23, double %25, double %.0810)
  %indvars.iv.next = add nuw nsw i64 %indvars.iv, 1
  %exitcond.not = icmp eq i64 %indvars.iv.next, %wide.trip.count
  br i1 %exitcond.not, label %.loopexit, label %19, !llvm.loop !1079

.loopexit:                                        ; preds = %19, %9, %5
  %.09 = phi double [ %8, %5 ], [ 0.000000e+00, %9 ], [ %26, %19 ]
  ret double %.09
}